; Function Attrs: mustprogress uwtable
define hidden noundef zeroext i1 @_ZN4cvc58internal13preprocessing4util13ITESimplifier13isConstantIteENS0_12NodeTemplateILb0EEE(ptr noundef nonnull align 8 dereferenceable(712) %0, ptr noundef nonnull %1) local_unnamed_addr #3 align 2 personality ptr @__gxx_personality_v0 {
  %3 = alloca %"class.cvc5::internal::TypeNode", align 8
  %4 = alloca %"class.cvc5::internal::NodeTemplate.375", align 8
  %5 = alloca %"class.cvc5::internal::NodeTemplate.375", align 8
  %6 = tail call noundef zeroext i1 @_ZNK4cvc58internal12NodeTemplateILb0EE7isConstEv(ptr noundef nonnull align 8 dereferenceable(8) %1)
  br i1 %6, label %_ZN4cvc58internal13preprocessing4util3iteL9isTermITEENS0_12NodeTemplateILb0EEE.exit.thread, label %7

7:                                                ; preds = %2
  %8 = load ptr, ptr %1, align 8, !tbaa !36
  store ptr %8, ptr %4, align 8, !tbaa !36
  %9 = getelementptr inbounds nuw i8, ptr %8, i64 8
  %10 = load i64, ptr %9, align 8
  %11 = and i64 %10, 1023
  %12 = icmp eq i64 %11, 26
  br i1 %12, label %.noexc, label %_ZN4cvc58internal13preprocessing4util3iteL9isTermITEENS0_12NodeTemplateILb0EEE.exit.thread

.noexc:                                           ; preds = %7
  call void @llvm.lifetime.start.p0(i64 8, ptr nonnull %3) #28
  call void @_ZNK4cvc58internal12NodeTemplateILb0EE7getTypeEb(ptr dead_on_unwind nonnull writable sret(%"class.cvc5::internal::TypeNode") align 8 %3, ptr noundef nonnull align 8 dereferenceable(8) %4, i1 noundef zeroext false)
  %13 = load ptr, ptr %3, align 8, !tbaa !93
  %14 = getelementptr inbounds nuw i8, ptr %13, i64 8
  %15 = load i64, ptr %14, align 8
  %16 = and i64 %15, 1023
  %17 = icmp eq i64 %16, 13
  br i1 %17, label %18, label %22

18:                                               ; preds = %.noexc
  %19 = invoke noundef nonnull align 4 dereferenceable(4) ptr @_ZNK4cvc58internal4expr9NodeValue8getConstINS0_12TypeConstantEEERKT_v(ptr noundef nonnull align 8 dereferenceable(24) %13)
          to label %.noexc.i unwind label %.body

.noexc.i:                                         ; preds = %18
  %20 = load i32, ptr %19, align 4, !tbaa !95
  %21 = icmp ne i32 %20, 2
  %.pre.i = load ptr, ptr %3, align 8, !tbaa !93
  br label %22

22:                                               ; preds = %.noexc.i, %.noexc
  %23 = phi ptr [ %13, %.noexc ], [ %.pre.i, %.noexc.i ]
  %24 = phi i1 [ true, %.noexc ], [ %21, %.noexc.i ]
  %25 = load i64, ptr %23, align 8
  %26 = and i64 %25, 1152920405095219200
  %.not.i.i.i = icmp eq i64 %26, 1152920405095219200
  br i1 %.not.i.i.i, label %_ZN4cvc58internal13preprocessing4util3iteL9isTermITEENS0_12NodeTemplateILb0EEE.exit, label %27, !prof !71

27:                                               ; preds = %22
  %28 = add i64 %25, 1152920405095219200
  %29 = and i64 %28, 1152920405095219200
  %30 = and i64 %25, -1152920405095219201
  %31 = or disjoint i64 %29, %30
  store i64 %31, ptr %23, align 8
  %32 = icmp eq i64 %29, 0
  br i1 %32, label %33, label %_ZN4cvc58internal13preprocessing4util3iteL9isTermITEENS0_12NodeTemplateILb0EEE.exit, !prof !71

33:                                               ; preds = %27
  invoke void @_ZN4cvc58internal4expr9NodeValue15markForDeletionEv(ptr noundef nonnull align 8 dereferenceable(24) %23)
          to label %_ZN4cvc58internal13preprocessing4util3iteL9isTermITEENS0_12NodeTemplateILb0EEE.exit unwind label %34

34:                                               ; preds = %33
  %35 = landingpad { ptr, i32 }
          catch ptr null
  %36 = extractvalue { ptr, i32 } %35, 0
  call void @__clang_call_terminate(ptr %36) #30
  unreachable

.body:                                            ; preds = %18
  %37 = landingpad { ptr, i32 }
          cleanup
  call void @_ZN4cvc58internal8TypeNodeD2Ev(ptr noundef nonnull align 8 dereferenceable(8) %3) #28
  call void @llvm.lifetime.end.p0(i64 8, ptr nonnull %3) #28
  resume { ptr, i32 } %37

_ZN4cvc58internal13preprocessing4util3iteL9isTermITEENS0_12NodeTemplateILb0EEE.exit: ; preds = %22, %27, %33
  call void @llvm.lifetime.end.p0(i64 8, ptr nonnull %3) #28
  br i1 %24, label %38, label %_ZN4cvc58internal13preprocessing4util3iteL9isTermITEENS0_12NodeTemplateILb0EEE.exit.thread

38:                                               ; preds = %_ZN4cvc58internal13preprocessing4util3iteL9isTermITEENS0_12NodeTemplateILb0EEE.exit
  %39 = load ptr, ptr %1, align 8, !tbaa !36
  store ptr %39, ptr %5, align 8, !tbaa !36
  %40 = call noundef ptr @_ZN4cvc58internal13preprocessing4util13ITESimplifier21computeConstantLeavesENS0_12NodeTemplateILb0EEE(ptr noundef nonnull align 8 dereferenceable(712) %0, ptr noundef nonnull %5)
  %41 = icmp ne ptr %40, null
  br label %_ZN4cvc58internal13preprocessing4util3iteL9isTermITEENS0_12NodeTemplateILb0EEE.exit.thread

_ZN4cvc58internal13preprocessing4util3iteL9isTermITEENS0_12NodeTemplateILb0EEE.exit.thread: ; preds = %7, %_ZN4cvc58internal13preprocessing4util3iteL9isTermITEENS0_12NodeTemplateILb0EEE.exit, %2, %38
  %.0 = phi i1 [ %41, %38 ], [ true, %2 ], [ false, %_ZN4cvc58internal13preprocessing4util3iteL9isTermITEENS0_12NodeTemplateILb0EEE.exit ], [ false, %7 ]
  ret i1 %.0
}